(lp0
cnumpy.core.multiarray
scalar
p1
(cnumpy
dtype
p2
(S'f4'
p3
I0
I1
tp4
Rp5
(I3
S'<'
p6
NNNI-1
I-1
I0
tp7
bS'\xb4\xf1\xe6?'
p8
tp9
Rp10
ag1
(g5
S'\xb9\xad\xac?'
p11
tp12
Rp13
ag1
(g5
S'\xa5\xc6\x9b?'
p14
tp15
Rp16
ag1
(g5
S'\x84\x0c\x92?'
p17
tp18
Rp19
ag1
(g5
S'N4\x88?'
p20
tp21
Rp22
ag1
(g5
S'K*\x83?'
p23
tp24
Rp25
ag1
(g5
S'\xe2Tw?'
p26
tp27
Rp28
ag1
(g5
S'\x1d\xa1y?'
p29
tp30
Rp31
ag1
(g5
S'l#i?'
p32
tp33
Rp34
ag1
(g5
S';\xb5b?'
p35
tp36
Rp37
a.